; Function Attrs: mustprogress uwtable
define hidden noundef zeroext i1 @_ZNK5ceres15GradientProblem8EvaluateEPKdPdS3_(ptr nocapture noundef nonnull readonly align 8 dereferenceable(24) %0, ptr noundef %1, ptr noundef %2, ptr noundef %3) local_unnamed_addr #0 align 2 {
  %5 = icmp eq ptr %3, null
  %6 = load ptr, ptr %0, align 8
  br i1 %5, label %7, label %12

7:                                                ; preds = %4
  %8 = load ptr, ptr %6, align 8
  %9 = getelementptr inbounds i8, ptr %8, i64 16
  %10 = load ptr, ptr %9, align 8
  %11 = tail call noundef zeroext i1 %10(ptr noundef nonnull align 8 dereferenceable(8) %6, ptr noundef %1, ptr noundef %2, ptr noundef null)
  br label %27

12:                                               ; preds = %4
  %13 = getelementptr inbounds i8, ptr %0, i64 16
  %14 = load ptr, ptr %13, align 8
  %15 = load ptr, ptr %6, align 8
  %16 = getelementptr inbounds i8, ptr %15, i64 16
  %17 = load ptr, ptr %16, align 8
  %18 = tail call noundef zeroext i1 %17(ptr noundef nonnull align 8 dereferenceable(8) %6, ptr noundef %1, ptr noundef %2, ptr noundef %14)
  br i1 %18, label %19, label %27

19:                                               ; preds = %12
  %20 = getelementptr inbounds i8, ptr %0, i64 8
  %21 = load ptr, ptr %20, align 8
  %22 = load ptr, ptr %13, align 8
  %23 = load ptr, ptr %21, align 8
  %24 = getelementptr inbounds i8, ptr %23, i64 48
  %25 = load ptr, ptr %24, align 8
  %26 = tail call noundef zeroext i1 %25(ptr noundef nonnull align 8 dereferenceable(8) %21, ptr noundef %1, i32 noundef 1, ptr noundef %22, ptr noundef nonnull %3)
  br label %27

27:                                               ; preds = %12, %19, %7
  %.0 = phi i1 [ %11, %7 ], [ false, %12 ], [ %26, %19 ]
  ret i1 %.0
}